target datalayout = "e-m:e-p270:32:32-p271:32:32-p272:64:64-i64:64-i128:128-f80:128-n8:16:32:64-S128"
target triple = "x86_64-pc-linux-gnu"

; Function Attrs: nounwind uwtable
define void @SUNErrHandler_Destroy(ptr noundef %0) #0 {
  %2 = alloca ptr, align 8
  store ptr %0, ptr %2, align 8, !tbaa !7
  %3 = load ptr, ptr %2, align 8, !tbaa !7
  %4 = icmp ne ptr %3, null
  br i1 %4, label %5, label %9

5:                                                ; preds = %1
  %6 = load ptr, ptr %2, align 8, !tbaa !7
  %7 = load ptr, ptr %6, align 8, !tbaa !9
  %8 = icmp ne ptr %7, null
  br i1 %8, label %10, label %9

9:                                                ; preds = %5, %1
  br label %14

10:                                               ; preds = %5
  %11 = load ptr, ptr %2, align 8, !tbaa !7
  %12 = load ptr, ptr %11, align 8, !tbaa !9
  call void @free(ptr noundef %12) #9
  %13 = load ptr, ptr %2, align 8, !tbaa !7
  store ptr null, ptr %13, align 8, !tbaa !9
  br label %14

14:                                               ; preds = %10, %9
  ret void
}