; Function Attrs: mustprogress nounwind willreturn uwtable
define void @SUNErrHandler_Destroy(ptr noundef captures(address_is_null) %0) local_unnamed_addr #3 {
  %.not = icmp eq ptr %0, null
  br i1 %.not, label %5, label %2

2:                                                ; preds = %1
  %3 = load ptr, ptr %0, align 8, !tbaa !11
  %.not5 = icmp eq ptr %3, null
  br i1 %.not5, label %5, label %4

4:                                                ; preds = %2
  tail call void @free(ptr noundef nonnull %3) #17
  store ptr null, ptr %0, align 8, !tbaa !11
  br label %5

5:                                                ; preds = %1, %2, %4
  ret void
}